; Function Attrs: mustprogress uwtable
define void @_ZN26MainWindowPreferencesFrame37on_foStyleSpecifiedPushButton_clickedEv(ptr noundef nonnull align 8 dereferenceable(144) %0) local_unnamed_addr #0 align 2 personality ptr @__gxx_personality_v0 {
  %2 = alloca %class.QString, align 8
  %3 = alloca %class.QString, align 8
  %4 = alloca %class.QString, align 8
  %5 = alloca %"class.std::__cxx11::basic_string", align 8
  call void @_ZNK11QMetaObject2trEPKcS1_i(ptr dead_on_unwind nonnull writable sret(%class.QString) align 8 %3, ptr noundef nonnull align 8 dereferenceable(56) @_ZN26MainWindowPreferencesFrame16staticMetaObjectE, ptr noundef nonnull @.str.9, ptr noundef null, i32 noundef -1)
  call void @llvm.memset.p0.i64(ptr noundef nonnull align 8 dereferenceable(24) %4, i8 0, i64 24, i1 false)
  invoke void @_ZN19WiresharkFileDialog20getExistingDirectoryEP7QWidgetRK7QStringS4_6QFlagsIN11QFileDialog6OptionEE(ptr dead_on_unwind nonnull writable sret(%class.QString) align 8 %2, ptr noundef nonnull %0, ptr noundef nonnull align 8 dereferenceable(24) %3, ptr noundef nonnull align 8 dereferenceable(24) %4, i32 1)
          to label %6 unwind label %18

6:                                                ; preds = %1
  %7 = load ptr, ptr %4, align 8
  %.not.i.i.i = icmp eq ptr %7, null
  br i1 %.not.i.i.i, label %_ZN7QStringD2Ev.exit, label %_ZN17QArrayDataPointerIDsE5derefEv.exit.i.i

_ZN17QArrayDataPointerIDsE5derefEv.exit.i.i:      ; preds = %6
  %8 = atomicrmw sub ptr %7, i32 1 seq_cst, align 4
  %.not.i.i = icmp eq i32 %8, 1
  br i1 %.not.i.i, label %9, label %_ZN7QStringD2Ev.exit

9:                                                ; preds = %_ZN17QArrayDataPointerIDsE5derefEv.exit.i.i
  %10 = load ptr, ptr %4, align 8
  call void @_ZN10QArrayData10deallocateEPS_xx(ptr noundef %10, i64 noundef 2, i64 noundef 8) #16
  br label %_ZN7QStringD2Ev.exit

_ZN7QStringD2Ev.exit:                             ; preds = %6, %_ZN17QArrayDataPointerIDsE5derefEv.exit.i.i, %9
  %11 = load ptr, ptr %3, align 8
  %.not.i.i.i6 = icmp eq ptr %11, null
  br i1 %.not.i.i.i6, label %_ZN7QStringD2Ev.exit9, label %_ZN17QArrayDataPointerIDsE5derefEv.exit.i.i7

_ZN17QArrayDataPointerIDsE5derefEv.exit.i.i7:     ; preds = %_ZN7QStringD2Ev.exit
  %12 = atomicrmw sub ptr %11, i32 1 seq_cst, align 4
  %.not.i.i8 = icmp eq i32 %12, 1
  br i1 %.not.i.i8, label %13, label %_ZN7QStringD2Ev.exit9

13:                                               ; preds = %_ZN17QArrayDataPointerIDsE5derefEv.exit.i.i7
  %14 = load ptr, ptr %3, align 8
  call void @_ZN10QArrayData10deallocateEPS_xx(ptr noundef %14, i64 noundef 2, i64 noundef 8) #16
  br label %_ZN7QStringD2Ev.exit9

_ZN7QStringD2Ev.exit9:                            ; preds = %_ZN7QStringD2Ev.exit, %_ZN17QArrayDataPointerIDsE5derefEv.exit.i.i7, %13
  %15 = getelementptr inbounds i8, ptr %2, i64 16
  %16 = load i64, ptr %15, align 8
  %17 = icmp eq i64 %16, 0
  br i1 %17, label %43, label %28

18:                                               ; preds = %1
  %19 = landingpad { ptr, i32 }
          cleanup
  %20 = load ptr, ptr %4, align 8
  %.not.i.i.i10 = icmp eq ptr %20, null
  br i1 %.not.i.i.i10, label %_ZN7QStringD2Ev.exit13, label %_ZN17QArrayDataPointerIDsE5derefEv.exit.i.i11

_ZN17QArrayDataPointerIDsE5derefEv.exit.i.i11:    ; preds = %18
  %21 = atomicrmw sub ptr %20, i32 1 seq_cst, align 4
  %.not.i.i12 = icmp eq i32 %21, 1
  br i1 %.not.i.i12, label %22, label %_ZN7QStringD2Ev.exit13

22:                                               ; preds = %_ZN17QArrayDataPointerIDsE5derefEv.exit.i.i11
  %23 = load ptr, ptr %4, align 8
  call void @_ZN10QArrayData10deallocateEPS_xx(ptr noundef %23, i64 noundef 2, i64 noundef 8) #16
  br label %_ZN7QStringD2Ev.exit13

_ZN7QStringD2Ev.exit13:                           ; preds = %18, %_ZN17QArrayDataPointerIDsE5derefEv.exit.i.i11, %22
  %24 = load ptr, ptr %3, align 8
  %.not.i.i.i14 = icmp eq ptr %24, null
  br i1 %.not.i.i.i14, label %_ZN7QStringD2Ev.exit17, label %_ZN17QArrayDataPointerIDsE5derefEv.exit.i.i15

_ZN17QArrayDataPointerIDsE5derefEv.exit.i.i15:    ; preds = %_ZN7QStringD2Ev.exit13
  %25 = atomicrmw sub ptr %24, i32 1 seq_cst, align 4
  %.not.i.i16 = icmp eq i32 %25, 1
  br i1 %.not.i.i16, label %_ZN7QStringD2Ev.exit17.sink.split, label %_ZN7QStringD2Ev.exit17

26:                                               ; preds = %39, %33, %28
  %27 = landingpad { ptr, i32 }
          cleanup
  br label %50

28:                                               ; preds = %_ZN7QStringD2Ev.exit9
  %29 = getelementptr inbounds i8, ptr %0, i64 40
  %30 = load ptr, ptr %29, align 8
  %31 = getelementptr inbounds i8, ptr %30, i64 40
  %32 = load ptr, ptr %31, align 8
  invoke void @_ZN9QLineEdit7setTextERK7QString(ptr noundef nonnull align 8 dereferenceable(40) %32, ptr noundef nonnull align 8 dereferenceable(24) %2)
          to label %33 unwind label %26

33:                                               ; preds = %28
  %34 = getelementptr inbounds i8, ptr %0, i64 80
  %35 = load ptr, ptr %34, align 8
  invoke void @_ZNK7QString11toStdStringB5cxx11Ev(ptr dead_on_unwind nonnull writable sret(%"class.std::__cxx11::basic_string") align 8 %5, ptr noundef nonnull align 8 dereferenceable(24) %2)
          to label %36 unwind label %26

36:                                               ; preds = %33
  %37 = call noundef ptr @_ZNKSt7__cxx1112basic_stringIcSt11char_traitsIcESaIcEE5c_strEv(ptr noundef nonnull align 8 dereferenceable(32) %5) #16
  %38 = invoke i32 @prefs_set_string_value(ptr noundef %35, ptr noundef %37, i32 noundef 1)
          to label %39 unwind label %48

39:                                               ; preds = %36
  call void @_ZNSt7__cxx1112basic_stringIcSt11char_traitsIcESaIcEED1Ev(ptr noundef nonnull align 8 dereferenceable(32) %5) #16
  %40 = load ptr, ptr %29, align 8
  %41 = getelementptr inbounds i8, ptr %40, i64 32
  %42 = load ptr, ptr %41, align 8
  invoke void @_ZN15QAbstractButton10setCheckedEb(ptr noundef nonnull align 8 dereferenceable(40) %42, i1 noundef zeroext true)
          to label %43 unwind label %26

43:                                               ; preds = %39, %_ZN7QStringD2Ev.exit9
  %44 = load ptr, ptr %2, align 8
  %.not.i.i.i18 = icmp eq ptr %44, null
  br i1 %.not.i.i.i18, label %_ZN7QStringD2Ev.exit21, label %_ZN17QArrayDataPointerIDsE5derefEv.exit.i.i19

_ZN17QArrayDataPointerIDsE5derefEv.exit.i.i19:    ; preds = %43
  %45 = atomicrmw sub ptr %44, i32 1 seq_cst, align 4
  %.not.i.i20 = icmp eq i32 %45, 1
  br i1 %.not.i.i20, label %46, label %_ZN7QStringD2Ev.exit21

46:                                               ; preds = %_ZN17QArrayDataPointerIDsE5derefEv.exit.i.i19
  %47 = load ptr, ptr %2, align 8
  call void @_ZN10QArrayData10deallocateEPS_xx(ptr noundef %47, i64 noundef 2, i64 noundef 8) #16
  br label %_ZN7QStringD2Ev.exit21

_ZN7QStringD2Ev.exit21:                           ; preds = %43, %_ZN17QArrayDataPointerIDsE5derefEv.exit.i.i19, %46
  ret void

48:                                               ; preds = %36
  %49 = landingpad { ptr, i32 }
          cleanup
  call void @_ZNSt7__cxx1112basic_stringIcSt11char_traitsIcESaIcEED1Ev(ptr noundef nonnull align 8 dereferenceable(32) %5) #16
  br label %50

50:                                               ; preds = %48, %26
  %.pn = phi { ptr, i32 } [ %27, %26 ], [ %49, %48 ]
  %51 = load ptr, ptr %2, align 8
  %.not.i.i.i22 = icmp eq ptr %51, null
  br i1 %.not.i.i.i22, label %_ZN7QStringD2Ev.exit17, label %_ZN17QArrayDataPointerIDsE5derefEv.exit.i.i23

_ZN17QArrayDataPointerIDsE5derefEv.exit.i.i23:    ; preds = %50
  %52 = atomicrmw sub ptr %51, i32 1 seq_cst, align 4
  %.not.i.i24 = icmp eq i32 %52, 1
  br i1 %.not.i.i24, label %_ZN7QStringD2Ev.exit17.sink.split, label %_ZN7QStringD2Ev.exit17

_ZN7QStringD2Ev.exit17.sink.split:                ; preds = %_ZN17QArrayDataPointerIDsE5derefEv.exit.i.i23, %_ZN17QArrayDataPointerIDsE5derefEv.exit.i.i15
  %.sink.in = phi ptr [ %3, %_ZN17QArrayDataPointerIDsE5derefEv.exit.i.i15 ], [ %2, %_ZN17QArrayDataPointerIDsE5derefEv.exit.i.i23 ]
  %.pn.pn.ph = phi { ptr, i32 } [ %19, %_ZN17QArrayDataPointerIDsE5derefEv.exit.i.i15 ], [ %.pn, %_ZN17QArrayDataPointerIDsE5derefEv.exit.i.i23 ]
  %.sink = load ptr, ptr %.sink.in, align 8
  call void @_ZN10QArrayData10deallocateEPS_xx(ptr noundef %.sink, i64 noundef 2, i64 noundef 8) #16
  br label %_ZN7QStringD2Ev.exit17

_ZN7QStringD2Ev.exit17:                           ; preds = %_ZN7QStringD2Ev.exit17.sink.split, %_ZN17QArrayDataPointerIDsE5derefEv.exit.i.i23, %50, %_ZN17QArrayDataPointerIDsE5derefEv.exit.i.i15, %_ZN7QStringD2Ev.exit13
  %.pn.pn = phi { ptr, i32 } [ %19, %_ZN7QStringD2Ev.exit13 ], [ %19, %_ZN17QArrayDataPointerIDsE5derefEv.exit.i.i15 ], [ %.pn, %50 ], [ %.pn, %_ZN17QArrayDataPointerIDsE5derefEv.exit.i.i23 ], [ %.pn.pn.ph, %_ZN7QStringD2Ev.exit17.sink.split ]
  resume { ptr, i32 } %.pn.pn
}